target datalayout = "e-m:e-p270:32:32-p271:32:32-p272:64:64-i64:64-i128:128-f80:128-n8:16:32:64-S128"
target triple = "x86_64-pc-linux-gnu"

%struct.SDL_BlitInfo = type { ptr, ptr, i32, i32, i32, i32, ptr, ptr, i32, i32, i32, i32, ptr, ptr, ptr, ptr, ptr, ptr, i32, i32, i8, i8, i8, i8 }

; Function Attrs: nounwind uwtable
define internal void @Blit1to2(ptr noundef %0) #0 {
  %2 = alloca ptr, align 8
  %3 = alloca i32, align 4
  %4 = alloca i32, align 4
  %5 = alloca ptr, align 8
  %6 = alloca ptr, align 8
  %7 = alloca ptr, align 8
  %8 = alloca i32, align 4
  %9 = alloca i32, align 4
  %10 = alloca i32, align 4
  store ptr %0, ptr %2, align 8
  call void @llvm.lifetime.start.p0(i64 4, ptr %3) #2
  call void @llvm.lifetime.start.p0(i64 4, ptr %4) #2
  call void @llvm.lifetime.start.p0(i64 8, ptr %5) #2
  call void @llvm.lifetime.start.p0(i64 8, ptr %6) #2
  call void @llvm.lifetime.start.p0(i64 8, ptr %7) #2
  call void @llvm.lifetime.start.p0(i64 4, ptr %8) #2
  call void @llvm.lifetime.start.p0(i64 4, ptr %9) #2
  %11 = load ptr, ptr %2, align 8
  %12 = getelementptr inbounds nuw %struct.SDL_BlitInfo, ptr %11, i32 0, i32 8
  %13 = load i32, ptr %12, align 8
  store i32 %13, ptr %3, align 4
  %14 = load ptr, ptr %2, align 8
  %15 = getelementptr inbounds nuw %struct.SDL_BlitInfo, ptr %14, i32 0, i32 9
  %16 = load i32, ptr %15, align 4
  store i32 %16, ptr %4, align 4
  %17 = load ptr, ptr %2, align 8
  %18 = getelementptr inbounds nuw %struct.SDL_BlitInfo, ptr %17, i32 0, i32 1
  %19 = load ptr, ptr %18, align 8
  store ptr %19, ptr %5, align 8
  %20 = load ptr, ptr %2, align 8
  %21 = getelementptr inbounds nuw %struct.SDL_BlitInfo, ptr %20, i32 0, i32 5
  %22 = load i32, ptr %21, align 4
  store i32 %22, ptr %8, align 4
  %23 = load ptr, ptr %2, align 8
  %24 = getelementptr inbounds nuw %struct.SDL_BlitInfo, ptr %23, i32 0, i32 7
  %25 = load ptr, ptr %24, align 8
  store ptr %25, ptr %6, align 8
  %26 = load ptr, ptr %2, align 8
  %27 = getelementptr inbounds nuw %struct.SDL_BlitInfo, ptr %26, i32 0, i32 11
  %28 = load i32, ptr %27, align 4
  store i32 %28, ptr %9, align 4
  %29 = load ptr, ptr %2, align 8
  %30 = getelementptr inbounds nuw %struct.SDL_BlitInfo, ptr %29, i32 0, i32 16
  %31 = load ptr, ptr %30, align 8
  store ptr %31, ptr %7, align 8
  br label %32

32:                                               ; preds = %136, %1
  %33 = load i32, ptr %4, align 4
  %34 = add nsw i32 %33, -1
  store i32 %34, ptr %4, align 4
  %35 = icmp ne i32 %33, 0
  br i1 %35, label %36, label %145

36:                                               ; preds = %32
  call void @llvm.lifetime.start.p0(i64 4, ptr %10) #2
  %37 = load i32, ptr %3, align 4
  %38 = add nsw i32 %37, 7
  %39 = sdiv i32 %38, 8
  store i32 %39, ptr %10, align 4
  %40 = load i32, ptr %3, align 4
  %41 = and i32 %40, 7
  switch i32 %41, label %136 [
    i32 0, label %42
    i32 7, label %54
    i32 6, label %65
    i32 5, label %76
    i32 4, label %87
    i32 3, label %98
    i32 2, label %109
    i32 1, label %120
  ]

42:                                               ; preds = %36
  br label %43

43:                                               ; preds = %131, %42
  %44 = load ptr, ptr %7, align 8
  %45 = load ptr, ptr %5, align 8
  %46 = getelementptr inbounds nuw i8, ptr %45, i32 1
  store ptr %46, ptr %5, align 8
  %47 = load i8, ptr %45, align 1
  %48 = zext i8 %47 to i64
  %49 = getelementptr inbounds nuw i16, ptr %44, i64 %48
  %50 = load i16, ptr %49, align 2
  %51 = load ptr, ptr %6, align 8
  store i16 %50, ptr %51, align 2
  %52 = load ptr, ptr %6, align 8
  %53 = getelementptr inbounds i8, ptr %52, i64 2
  store ptr %53, ptr %6, align 8
  br label %54

54:                                               ; preds = %36, %43
  %55 = load ptr, ptr %7, align 8
  %56 = load ptr, ptr %5, align 8
  %57 = getelementptr inbounds nuw i8, ptr %56, i32 1
  store ptr %57, ptr %5, align 8
  %58 = load i8, ptr %56, align 1
  %59 = zext i8 %58 to i64
  %60 = getelementptr inbounds nuw i16, ptr %55, i64 %59
  %61 = load i16, ptr %60, align 2
  %62 = load ptr, ptr %6, align 8
  store i16 %61, ptr %62, align 2
  %63 = load ptr, ptr %6, align 8
  %64 = getelementptr inbounds i8, ptr %63, i64 2
  store ptr %64, ptr %6, align 8
  br label %65

65:                                               ; preds = %36, %54
  %66 = load ptr, ptr %7, align 8
  %67 = load ptr, ptr %5, align 8
  %68 = getelementptr inbounds nuw i8, ptr %67, i32 1
  store ptr %68, ptr %5, align 8
  %69 = load i8, ptr %67, align 1
  %70 = zext i8 %69 to i64
  %71 = getelementptr inbounds nuw i16, ptr %66, i64 %70
  %72 = load i16, ptr %71, align 2
  %73 = load ptr, ptr %6, align 8
  store i16 %72, ptr %73, align 2
  %74 = load ptr, ptr %6, align 8
  %75 = getelementptr inbounds i8, ptr %74, i64 2
  store ptr %75, ptr %6, align 8
  br label %76

76:                                               ; preds = %36, %65
  %77 = load ptr, ptr %7, align 8
  %78 = load ptr, ptr %5, align 8
  %79 = getelementptr inbounds nuw i8, ptr %78, i32 1
  store ptr %79, ptr %5, align 8
  %80 = load i8, ptr %78, align 1
  %81 = zext i8 %80 to i64
  %82 = getelementptr inbounds nuw i16, ptr %77, i64 %81
  %83 = load i16, ptr %82, align 2
  %84 = load ptr, ptr %6, align 8
  store i16 %83, ptr %84, align 2
  %85 = load ptr, ptr %6, align 8
  %86 = getelementptr inbounds i8, ptr %85, i64 2
  store ptr %86, ptr %6, align 8
  br label %87

87:                                               ; preds = %36, %76
  %88 = load ptr, ptr %7, align 8
  %89 = load ptr, ptr %5, align 8
  %90 = getelementptr inbounds nuw i8, ptr %89, i32 1
  store ptr %90, ptr %5, align 8
  %91 = load i8, ptr %89, align 1
  %92 = zext i8 %91 to i64
  %93 = getelementptr inbounds nuw i16, ptr %88, i64 %92
  %94 = load i16, ptr %93, align 2
  %95 = load ptr, ptr %6, align 8
  store i16 %94, ptr %95, align 2
  %96 = load ptr, ptr %6, align 8
  %97 = getelementptr inbounds i8, ptr %96, i64 2
  store ptr %97, ptr %6, align 8
  br label %98

98:                                               ; preds = %36, %87
  %99 = load ptr, ptr %7, align 8
  %100 = load ptr, ptr %5, align 8
  %101 = getelementptr inbounds nuw i8, ptr %100, i32 1
  store ptr %101, ptr %5, align 8
  %102 = load i8, ptr %100, align 1
  %103 = zext i8 %102 to i64
  %104 = getelementptr inbounds nuw i16, ptr %99, i64 %103
  %105 = load i16, ptr %104, align 2
  %106 = load ptr, ptr %6, align 8
  store i16 %105, ptr %106, align 2
  %107 = load ptr, ptr %6, align 8
  %108 = getelementptr inbounds i8, ptr %107, i64 2
  store ptr %108, ptr %6, align 8
  br label %109

109:                                              ; preds = %36, %98
  %110 = load ptr, ptr %7, align 8
  %111 = load ptr, ptr %5, align 8
  %112 = getelementptr inbounds nuw i8, ptr %111, i32 1
  store ptr %112, ptr %5, align 8
  %113 = load i8, ptr %111, align 1
  %114 = zext i8 %113 to i64
  %115 = getelementptr inbounds nuw i16, ptr %110, i64 %114
  %116 = load i16, ptr %115, align 2
  %117 = load ptr, ptr %6, align 8
  store i16 %116, ptr %117, align 2
  %118 = load ptr, ptr %6, align 8
  %119 = getelementptr inbounds i8, ptr %118, i64 2
  store ptr %119, ptr %6, align 8
  br label %120

120:                                              ; preds = %36, %109
  %121 = load ptr, ptr %7, align 8
  %122 = load ptr, ptr %5, align 8
  %123 = getelementptr inbounds nuw i8, ptr %122, i32 1
  store ptr %123, ptr %5, align 8
  %124 = load i8, ptr %122, align 1
  %125 = zext i8 %124 to i64
  %126 = getelementptr inbounds nuw i16, ptr %121, i64 %125
  %127 = load i16, ptr %126, align 2
  %128 = load ptr, ptr %6, align 8
  store i16 %127, ptr %128, align 2
  %129 = load ptr, ptr %6, align 8
  %130 = getelementptr inbounds i8, ptr %129, i64 2
  store ptr %130, ptr %6, align 8
  br label %131

131:                                              ; preds = %120
  %132 = load i32, ptr %10, align 4
  %133 = add nsw i32 %132, -1
  store i32 %133, ptr %10, align 4
  %134 = icmp sgt i32 %133, 0
  br i1 %134, label %43, label %135, !llvm.loop !10

135:                                              ; preds = %131
  br label %136

136:                                              ; preds = %135, %36
  call void @llvm.lifetime.end.p0(i64 4, ptr %10) #2
  %137 = load i32, ptr %8, align 4
  %138 = load ptr, ptr %5, align 8
  %139 = sext i32 %137 to i64
  %140 = getelementptr inbounds i8, ptr %138, i64 %139
  store ptr %140, ptr %5, align 8
  %141 = load i32, ptr %9, align 4
  %142 = load ptr, ptr %6, align 8
  %143 = sext i32 %141 to i64
  %144 = getelementptr inbounds i8, ptr %142, i64 %143
  store ptr %144, ptr %6, align 8
  br label %32, !llvm.loop !11

145:                                              ; preds = %32
  call void @llvm.lifetime.end.p0(i64 4, ptr %9) #2
  call void @llvm.lifetime.end.p0(i64 4, ptr %8) #2
  call void @llvm.lifetime.end.p0(i64 8, ptr %7) #2
  call void @llvm.lifetime.end.p0(i64 8, ptr %6) #2
  call void @llvm.lifetime.end.p0(i64 8, ptr %5) #2
  call void @llvm.lifetime.end.p0(i64 4, ptr %4) #2
  call void @llvm.lifetime.end.p0(i64 4, ptr %3) #2
  ret void
}