; Function Attrs: nofree norecurse nosync nounwind memory(readwrite, inaccessiblemem: none) uwtable
define internal void @Blit1to2(ptr noundef readonly captures(none) %0) #1 {
  %2 = getelementptr inbounds nuw i8, ptr %0, i64 52
  %3 = load i32, ptr %2, align 4
  %4 = getelementptr inbounds nuw i8, ptr %0, i64 96
  %5 = load ptr, ptr %4, align 8
  %.not65 = icmp eq i32 %3, 0
  br i1 %.not65, label %._crit_edge, label %.lr.ph

.lr.ph:                                           ; preds = %1
  %6 = getelementptr inbounds nuw i8, ptr %0, i64 60
  %7 = load i32, ptr %6, align 4
  %8 = getelementptr inbounds nuw i8, ptr %0, i64 40
  %9 = load ptr, ptr %8, align 8
  %10 = getelementptr inbounds nuw i8, ptr %0, i64 28
  %11 = load i32, ptr %10, align 4
  %12 = getelementptr inbounds nuw i8, ptr %0, i64 8
  %13 = load ptr, ptr %12, align 8
  %14 = getelementptr inbounds nuw i8, ptr %0, i64 48
  %15 = load i32, ptr %14, align 8
  %16 = add nsw i32 %15, 7
  %17 = sdiv i32 %16, 8
  %18 = and i32 %15, 7
  %19 = sext i32 %11 to i64
  %20 = sext i32 %7 to i64
  br label %21

21:                                               ; preds = %.lr.ph, %81
  %.in = phi i32 [ %3, %.lr.ph ], [ %22, %81 ]
  %.04767 = phi ptr [ %13, %.lr.ph ], [ %82, %81 ]
  %.05566 = phi ptr [ %9, %.lr.ph ], [ %83, %81 ]
  %22 = add nsw i32 %.in, -1
  switch i32 %18, label %default.unreachable68 [
    i32 0, label %23
    i32 7, label %30
    i32 6, label %37
    i32 5, label %44
    i32 4, label %51
    i32 3, label %58
    i32 2, label %65
    i32 1, label %72
  ]

23:                                               ; preds = %21, %72
  %.863 = phi ptr [ %78, %72 ], [ %.05566, %21 ]
  %.8 = phi ptr [ %73, %72 ], [ %.04767, %21 ]
  %.7 = phi i32 [ %79, %72 ], [ %17, %21 ]
  %24 = getelementptr inbounds nuw i8, ptr %.8, i64 1
  %25 = load i8, ptr %.8, align 1
  %26 = zext i8 %25 to i64
  %27 = getelementptr inbounds nuw i16, ptr %5, i64 %26
  %28 = load i16, ptr %27, align 2
  store i16 %28, ptr %.863, align 2
  %29 = getelementptr inbounds nuw i8, ptr %.863, i64 2
  br label %30

30:                                               ; preds = %23, %21
  %.156 = phi ptr [ %29, %23 ], [ %.05566, %21 ]
  %.148 = phi ptr [ %24, %23 ], [ %.04767, %21 ]
  %.0 = phi i32 [ %.7, %23 ], [ %17, %21 ]
  %31 = getelementptr inbounds nuw i8, ptr %.148, i64 1
  %32 = load i8, ptr %.148, align 1
  %33 = zext i8 %32 to i64
  %34 = getelementptr inbounds nuw i16, ptr %5, i64 %33
  %35 = load i16, ptr %34, align 2
  store i16 %35, ptr %.156, align 2
  %36 = getelementptr inbounds nuw i8, ptr %.156, i64 2
  br label %37

37:                                               ; preds = %30, %21
  %.257 = phi ptr [ %36, %30 ], [ %.05566, %21 ]
  %.249 = phi ptr [ %31, %30 ], [ %.04767, %21 ]
  %.1 = phi i32 [ %.0, %30 ], [ %17, %21 ]
  %38 = getelementptr inbounds nuw i8, ptr %.249, i64 1
  %39 = load i8, ptr %.249, align 1
  %40 = zext i8 %39 to i64
  %41 = getelementptr inbounds nuw i16, ptr %5, i64 %40
  %42 = load i16, ptr %41, align 2
  store i16 %42, ptr %.257, align 2
  %43 = getelementptr inbounds nuw i8, ptr %.257, i64 2
  br label %44

44:                                               ; preds = %37, %21
  %.358 = phi ptr [ %43, %37 ], [ %.05566, %21 ]
  %.350 = phi ptr [ %38, %37 ], [ %.04767, %21 ]
  %.2 = phi i32 [ %.1, %37 ], [ %17, %21 ]
  %45 = getelementptr inbounds nuw i8, ptr %.350, i64 1
  %46 = load i8, ptr %.350, align 1
  %47 = zext i8 %46 to i64
  %48 = getelementptr inbounds nuw i16, ptr %5, i64 %47
  %49 = load i16, ptr %48, align 2
  store i16 %49, ptr %.358, align 2
  %50 = getelementptr inbounds nuw i8, ptr %.358, i64 2
  br label %51

51:                                               ; preds = %44, %21
  %.459 = phi ptr [ %50, %44 ], [ %.05566, %21 ]
  %.451 = phi ptr [ %45, %44 ], [ %.04767, %21 ]
  %.3 = phi i32 [ %.2, %44 ], [ %17, %21 ]
  %52 = getelementptr inbounds nuw i8, ptr %.451, i64 1
  %53 = load i8, ptr %.451, align 1
  %54 = zext i8 %53 to i64
  %55 = getelementptr inbounds nuw i16, ptr %5, i64 %54
  %56 = load i16, ptr %55, align 2
  store i16 %56, ptr %.459, align 2
  %57 = getelementptr inbounds nuw i8, ptr %.459, i64 2
  br label %58

58:                                               ; preds = %51, %21
  %.560 = phi ptr [ %57, %51 ], [ %.05566, %21 ]
  %.552 = phi ptr [ %52, %51 ], [ %.04767, %21 ]
  %.4 = phi i32 [ %.3, %51 ], [ %17, %21 ]
  %59 = getelementptr inbounds nuw i8, ptr %.552, i64 1
  %60 = load i8, ptr %.552, align 1
  %61 = zext i8 %60 to i64
  %62 = getelementptr inbounds nuw i16, ptr %5, i64 %61
  %63 = load i16, ptr %62, align 2
  store i16 %63, ptr %.560, align 2
  %64 = getelementptr inbounds nuw i8, ptr %.560, i64 2
  br label %65

65:                                               ; preds = %58, %21
  %.661 = phi ptr [ %64, %58 ], [ %.05566, %21 ]
  %.653 = phi ptr [ %59, %58 ], [ %.04767, %21 ]
  %.5 = phi i32 [ %.4, %58 ], [ %17, %21 ]
  %66 = getelementptr inbounds nuw i8, ptr %.653, i64 1
  %67 = load i8, ptr %.653, align 1
  %68 = zext i8 %67 to i64
  %69 = getelementptr inbounds nuw i16, ptr %5, i64 %68
  %70 = load i16, ptr %69, align 2
  store i16 %70, ptr %.661, align 2
  %71 = getelementptr inbounds nuw i8, ptr %.661, i64 2
  br label %72

72:                                               ; preds = %65, %21
  %.762 = phi ptr [ %.05566, %21 ], [ %71, %65 ]
  %.754 = phi ptr [ %.04767, %21 ], [ %66, %65 ]
  %.6 = phi i32 [ %17, %21 ], [ %.5, %65 ]
  %73 = getelementptr inbounds nuw i8, ptr %.754, i64 1
  %74 = load i8, ptr %.754, align 1
  %75 = zext i8 %74 to i64
  %76 = getelementptr inbounds nuw i16, ptr %5, i64 %75
  %77 = load i16, ptr %76, align 2
  store i16 %77, ptr %.762, align 2
  %78 = getelementptr inbounds nuw i8, ptr %.762, i64 2
  %79 = add nsw i32 %.6, -1
  %80 = icmp sgt i32 %.6, 1
  br i1 %80, label %23, label %81, !llvm.loop !10

default.unreachable68:                            ; preds = %21
  unreachable

81:                                               ; preds = %72
  %82 = getelementptr inbounds i8, ptr %73, i64 %19
  %83 = getelementptr inbounds i8, ptr %78, i64 %20
  %.not = icmp eq i32 %22, 0
  br i1 %.not, label %._crit_edge, label %21, !llvm.loop !11

._crit_edge:                                      ; preds = %81, %1
  ret void
}